; Function Attrs: mustprogress uwtable
define hidden void @_ZN11var_shifter11process_varEP3var(ptr noundef nonnull align 8 dereferenceable(156) %this, ptr noundef %v) unnamed_addr #3 align 2 {
entry:
  %m_idx.i = getelementptr inbounds i8, ptr %v, i64 16
  %0 = load i32, ptr %m_idx.i, align 8
  %m_num_qvars = getelementptr inbounds i8, ptr %this, i64 128
  %1 = load i32, ptr %m_num_qvars, align 8
  %cmp = icmp ult i32 %0, %1
  br i1 %cmp, label %_ZN15ref_vector_coreI4expr19ref_manager_wrapperIS0_11ast_managerEE7inc_refEPS0_.exit.i, label %if.else

_ZN15ref_vector_coreI4expr19ref_manager_wrapperIS0_11ast_managerEE7inc_refEPS0_.exit.i: ; preds = %entry
  %m_ref_count.i.i.i.i.i = getelementptr inbounds i8, ptr %v, i64 8
  %2 = load i32, ptr %m_ref_count.i.i.i.i.i, align 4
  %inc.i.i.i.i.i = add i32 %2, 1
  store i32 %inc.i.i.i.i.i, ptr %m_ref_count.i.i.i.i.i, align 4
  %m_nodes.i = getelementptr inbounds i8, ptr %this, i64 56
  %3 = load ptr, ptr %m_nodes.i, align 8
  %cmp.i.i = icmp eq ptr %3, null
  br i1 %cmp.i.i, label %if.then.i.i, label %lor.lhs.false.i.i

lor.lhs.false.i.i:                                ; preds = %_ZN15ref_vector_coreI4expr19ref_manager_wrapperIS0_11ast_managerEE7inc_refEPS0_.exit.i
  %arrayidx.i.i = getelementptr inbounds i8, ptr %3, i64 -4
  %4 = load i32, ptr %arrayidx.i.i, align 4
  %arrayidx4.i.i = getelementptr inbounds i8, ptr %3, i64 -8
  %5 = load i32, ptr %arrayidx4.i.i, align 4
  %cmp5.i.i = icmp eq i32 %4, %5
  br i1 %cmp5.i.i, label %if.then.i.i, label %_ZN15ref_vector_coreI4expr19ref_manager_wrapperIS0_11ast_managerEE9push_backEPS0_.exit

if.then.i.i:                                      ; preds = %lor.lhs.false.i.i, %_ZN15ref_vector_coreI4expr19ref_manager_wrapperIS0_11ast_managerEE7inc_refEPS0_.exit.i
  tail call void @_ZN6vectorIP4exprLb0EjE13expand_vectorEv(ptr noundef nonnull align 8 dereferenceable(8) %m_nodes.i)
  %.pre.i.i = load ptr, ptr %m_nodes.i, align 8
  %arrayidx8.phi.trans.insert.i.i = getelementptr inbounds i8, ptr %.pre.i.i, i64 -4
  %.pre1.i.i = load i32, ptr %arrayidx8.phi.trans.insert.i.i, align 4
  br label %_ZN15ref_vector_coreI4expr19ref_manager_wrapperIS0_11ast_managerEE9push_backEPS0_.exit

_ZN15ref_vector_coreI4expr19ref_manager_wrapperIS0_11ast_managerEE9push_backEPS0_.exit: ; preds = %lor.lhs.false.i.i, %if.then.i.i
  %6 = phi i32 [ %.pre1.i.i, %if.then.i.i ], [ %4, %lor.lhs.false.i.i ]
  %7 = phi ptr [ %.pre.i.i, %if.then.i.i ], [ %3, %lor.lhs.false.i.i ]
  %idx.ext.i.i = zext i32 %6 to i64
  %add.ptr.i.i = getelementptr inbounds ptr, ptr %7, i64 %idx.ext.i.i
  store ptr %v, ptr %add.ptr.i.i, align 8
  %8 = load ptr, ptr %m_nodes.i, align 8
  %arrayidx10.i.i = getelementptr inbounds i8, ptr %8, i64 -4
  %9 = load i32, ptr %arrayidx10.i.i, align 4
  %inc.i.i = add i32 %9, 1
  store i32 %inc.i.i, ptr %arrayidx10.i.i, align 4
  br label %if.end13

if.else:                                          ; preds = %entry
  %sub = sub i32 %0, %1
  %m_bound = getelementptr inbounds i8, ptr %this, i64 144
  %10 = load i32, ptr %m_bound, align 8
  %cmp4.not = icmp ult i32 %sub, %10
  %.pn.in.v = select i1 %cmp4.not, i64 152, i64 148
  %.pn.in = getelementptr inbounds i8, ptr %this, i64 %.pn.in.v
  %.pn = load i32, ptr %.pn.in, align 4
  %vidx.0 = add i32 %.pn, %0
  %m_manager.i = getelementptr inbounds i8, ptr %this, i64 8
  %11 = load ptr, ptr %m_manager.i, align 8
  %call10 = tail call noundef ptr @_ZNK4expr8get_sortEv(ptr noundef nonnull align 4 dereferenceable(16) %v)
  %call11 = tail call noundef ptr @_ZN11ast_manager6mk_varEjP4sort(ptr noundef nonnull align 8 dereferenceable(976) %11, i32 noundef %vidx.0, ptr noundef %call10)
  %tobool.not.i.i.i.i8 = icmp eq ptr %call11, null
  br i1 %tobool.not.i.i.i.i8, label %_ZN15ref_vector_coreI4expr19ref_manager_wrapperIS0_11ast_managerEE7inc_refEPS0_.exit.i12, label %if.then.i.i.i.i9

if.then.i.i.i.i9:                                 ; preds = %if.else
  %m_ref_count.i.i.i.i.i10 = getelementptr inbounds i8, ptr %call11, i64 8
  %12 = load i32, ptr %m_ref_count.i.i.i.i.i10, align 4
  %inc.i.i.i.i.i11 = add i32 %12, 1
  store i32 %inc.i.i.i.i.i11, ptr %m_ref_count.i.i.i.i.i10, align 4
  br label %_ZN15ref_vector_coreI4expr19ref_manager_wrapperIS0_11ast_managerEE7inc_refEPS0_.exit.i12

_ZN15ref_vector_coreI4expr19ref_manager_wrapperIS0_11ast_managerEE7inc_refEPS0_.exit.i12: ; preds = %if.then.i.i.i.i9, %if.else
  %m_nodes.i13 = getelementptr inbounds i8, ptr %this, i64 56
  %13 = load ptr, ptr %m_nodes.i13, align 8
  %cmp.i.i14 = icmp eq ptr %13, null
  br i1 %cmp.i.i14, label %if.then.i.i23, label %lor.lhs.false.i.i15

lor.lhs.false.i.i15:                              ; preds = %_ZN15ref_vector_coreI4expr19ref_manager_wrapperIS0_11ast_managerEE7inc_refEPS0_.exit.i12
  %arrayidx.i.i16 = getelementptr inbounds i8, ptr %13, i64 -4
  %14 = load i32, ptr %arrayidx.i.i16, align 4
  %arrayidx4.i.i17 = getelementptr inbounds i8, ptr %13, i64 -8
  %15 = load i32, ptr %arrayidx4.i.i17, align 4
  %cmp5.i.i18 = icmp eq i32 %14, %15
  br i1 %cmp5.i.i18, label %if.then.i.i23, label %_ZN15ref_vector_coreI4expr19ref_manager_wrapperIS0_11ast_managerEE9push_backEPS0_.exit27

if.then.i.i23:                                    ; preds = %lor.lhs.false.i.i15, %_ZN15ref_vector_coreI4expr19ref_manager_wrapperIS0_11ast_managerEE7inc_refEPS0_.exit.i12
  tail call void @_ZN6vectorIP4exprLb0EjE13expand_vectorEv(ptr noundef nonnull align 8 dereferenceable(8) %m_nodes.i13)
  %.pre.i.i24 = load ptr, ptr %m_nodes.i13, align 8
  %arrayidx8.phi.trans.insert.i.i25 = getelementptr inbounds i8, ptr %.pre.i.i24, i64 -4
  %.pre1.i.i26 = load i32, ptr %arrayidx8.phi.trans.insert.i.i25, align 4
  br label %_ZN15ref_vector_coreI4expr19ref_manager_wrapperIS0_11ast_managerEE9push_backEPS0_.exit27

_ZN15ref_vector_coreI4expr19ref_manager_wrapperIS0_11ast_managerEE9push_backEPS0_.exit27: ; preds = %lor.lhs.false.i.i15, %if.then.i.i23
  %16 = phi i32 [ %.pre1.i.i26, %if.then.i.i23 ], [ %14, %lor.lhs.false.i.i15 ]
  %17 = phi ptr [ %.pre.i.i24, %if.then.i.i23 ], [ %13, %lor.lhs.false.i.i15 ]
  %idx.ext.i.i19 = zext i32 %16 to i64
  %add.ptr.i.i20 = getelementptr inbounds ptr, ptr %17, i64 %idx.ext.i.i19
  store ptr %call11, ptr %add.ptr.i.i20, align 8
  %18 = load ptr, ptr %m_nodes.i13, align 8
  %arrayidx10.i.i21 = getelementptr inbounds i8, ptr %18, i64 -4
  %19 = load i32, ptr %arrayidx10.i.i21, align 4
  %inc.i.i22 = add i32 %19, 1
  store i32 %inc.i.i22, ptr %arrayidx10.i.i21, align 4
  %m_frame_stack.i = getelementptr inbounds i8, ptr %this, i64 40
  %20 = load ptr, ptr %m_frame_stack.i, align 8
  %cmp.i.i28 = icmp eq ptr %20, null
  br i1 %cmp.i.i28, label %if.end13, label %_ZNK6vectorIN13rewriter_core5frameELb0EjE5emptyEv.exit.i

_ZNK6vectorIN13rewriter_core5frameELb0EjE5emptyEv.exit.i: ; preds = %_ZN15ref_vector_coreI4expr19ref_manager_wrapperIS0_11ast_managerEE9push_backEPS0_.exit27
  %arrayidx.i.i29 = getelementptr inbounds i8, ptr %20, i64 -4
  %21 = load i32, ptr %arrayidx.i.i29, align 4
  %cmp3.i.i = icmp eq i32 %21, 0
  br i1 %cmp3.i.i, label %if.end13, label %_ZN6vectorIN13rewriter_core5frameELb0EjE4backEv.exit.i

_ZN6vectorIN13rewriter_core5frameELb0EjE4backEv.exit.i: ; preds = %_ZNK6vectorIN13rewriter_core5frameELb0EjE5emptyEv.exit.i
  %22 = add i32 %21, -1
  %23 = zext i32 %22 to i64
  %m_new_child.i = getelementptr inbounds %"struct.rewriter_core::frame", ptr %20, i64 %23, i32 1
  %bf.load.i = load i32, ptr %m_new_child.i, align 8
  %bf.set.i = or i32 %bf.load.i, 2
  store i32 %bf.set.i, ptr %m_new_child.i, align 8
  br label %if.end13

if.end13:                                         ; preds = %_ZN6vectorIN13rewriter_core5frameELb0EjE4backEv.exit.i, %_ZNK6vectorIN13rewriter_core5frameELb0EjE5emptyEv.exit.i, %_ZN15ref_vector_coreI4expr19ref_manager_wrapperIS0_11ast_managerEE9push_backEPS0_.exit27, %_ZN15ref_vector_coreI4expr19ref_manager_wrapperIS0_11ast_managerEE9push_backEPS0_.exit
  ret void
}